; Function Attrs: nounwind uwtable
define range(i32 -541478725, 1) i32 @ff_encode_receive_frame(ptr noundef readonly captures(none) %0, ptr noundef %1) local_unnamed_addr #0 {
  %3 = getelementptr inbounds nuw i8, ptr %0, i64 40
  %4 = load ptr, ptr %3, align 8, !tbaa !15
  %5 = getelementptr inbounds nuw i8, ptr %4, i64 96
  %6 = load ptr, ptr %5, align 8, !tbaa !132
  %.not = icmp eq ptr %6, null
  br i1 %.not, label %15, label %7

7:                                                ; preds = %2
  %8 = getelementptr inbounds nuw i8, ptr %6, i64 184
  %9 = load ptr, ptr %8, align 8, !tbaa !51
  %.not7 = icmp eq ptr %9, null
  br i1 %.not7, label %10, label %14

10:                                               ; preds = %7
  %11 = getelementptr inbounds nuw i8, ptr %4, i64 144
  %12 = load i32, ptr %11, align 8, !tbaa !87
  %.not8 = icmp eq i32 %12, 0
  %13 = select i1 %.not8, i32 -11, i32 -541478725
  br label %15

14:                                               ; preds = %7
  tail call void @av_frame_move_ref(ptr noundef %1, ptr noundef nonnull %6) #8
  br label %15

15:                                               ; preds = %2, %14, %10
  %.0 = phi i32 [ 0, %14 ], [ %13, %10 ], [ -22, %2 ]
  ret i32 %.0
}